target datalayout = "e-m:e-p270:32:32-p271:32:32-p272:64:64-i64:64-i128:128-f80:128-n8:16:32:64-S128"
target triple = "x86_64-pc-linux-gnu"

%struct.kh_odb_path_map = type { i32, i32, i32, i32, ptr, ptr, ptr }

; Function Attrs: inlinehint nounwind uwtable
define internal i32 @kh_put_odb_path_map(ptr noundef %0, ptr noundef %1, ptr noundef %2) #7 {
  %4 = alloca ptr, align 8
  %5 = alloca ptr, align 8
  %6 = alloca ptr, align 8
  %7 = alloca i32, align 4
  %8 = alloca i32, align 4
  %9 = alloca i32, align 4
  %10 = alloca i32, align 4
  %11 = alloca i32, align 4
  %12 = alloca i32, align 4
  %13 = alloca i32, align 4
  store ptr %0, ptr %4, align 8, !tbaa !207
  store ptr %1, ptr %5, align 8, !tbaa !12
  store ptr %2, ptr %6, align 8, !tbaa !171
  call void @llvm.lifetime.start.p0(i64 4, ptr %7) #14
  %14 = load ptr, ptr %4, align 8, !tbaa !207
  %15 = getelementptr inbounds nuw %struct.kh_odb_path_map, ptr %14, i32 0, i32 2
  %16 = load i32, ptr %15, align 8, !tbaa !208
  %17 = load ptr, ptr %4, align 8, !tbaa !207
  %18 = getelementptr inbounds nuw %struct.kh_odb_path_map, ptr %17, i32 0, i32 3
  %19 = load i32, ptr %18, align 4, !tbaa !209
  %20 = icmp uge i32 %16, %19
  br i1 %20, label %21, label %43

21:                                               ; preds = %3
  %22 = load ptr, ptr %4, align 8, !tbaa !207
  %23 = getelementptr inbounds nuw %struct.kh_odb_path_map, ptr %22, i32 0, i32 0
  %24 = load i32, ptr %23, align 8, !tbaa !210
  %25 = load ptr, ptr %4, align 8, !tbaa !207
  %26 = getelementptr inbounds nuw %struct.kh_odb_path_map, ptr %25, i32 0, i32 1
  %27 = load i32, ptr %26, align 4, !tbaa !211
  %28 = shl i32 %27, 1
  %29 = icmp ugt i32 %24, %28
  br i1 %29, label %30, label %36

30:                                               ; preds = %21
  %31 = load ptr, ptr %4, align 8, !tbaa !207
  %32 = load ptr, ptr %4, align 8, !tbaa !207
  %33 = getelementptr inbounds nuw %struct.kh_odb_path_map, ptr %32, i32 0, i32 0
  %34 = load i32, ptr %33, align 8, !tbaa !210
  %35 = sub i32 %34, 1
  call void @kh_resize_odb_path_map(ptr noundef %31, i32 noundef %35)
  br label %42

36:                                               ; preds = %21
  %37 = load ptr, ptr %4, align 8, !tbaa !207
  %38 = load ptr, ptr %4, align 8, !tbaa !207
  %39 = getelementptr inbounds nuw %struct.kh_odb_path_map, ptr %38, i32 0, i32 0
  %40 = load i32, ptr %39, align 8, !tbaa !210
  %41 = add i32 %40, 1
  call void @kh_resize_odb_path_map(ptr noundef %37, i32 noundef %41)
  br label %42

42:                                               ; preds = %36, %30
  br label %43

43:                                               ; preds = %42, %3
  call void @llvm.lifetime.start.p0(i64 4, ptr %8) #14
  call void @llvm.lifetime.start.p0(i64 4, ptr %9) #14
  call void @llvm.lifetime.start.p0(i64 4, ptr %10) #14
  call void @llvm.lifetime.start.p0(i64 4, ptr %11) #14
  call void @llvm.lifetime.start.p0(i64 4, ptr %12) #14
  %44 = load ptr, ptr %4, align 8, !tbaa !207
  %45 = getelementptr inbounds nuw %struct.kh_odb_path_map, ptr %44, i32 0, i32 0
  %46 = load i32, ptr %45, align 8, !tbaa !210
  %47 = sub i32 %46, 1
  store i32 %47, ptr %12, align 4, !tbaa !43
  call void @llvm.lifetime.start.p0(i64 4, ptr %13) #14
  store i32 0, ptr %13, align 4, !tbaa !43
  %48 = load ptr, ptr %4, align 8, !tbaa !207
  %49 = getelementptr inbounds nuw %struct.kh_odb_path_map, ptr %48, i32 0, i32 0
  %50 = load i32, ptr %49, align 8, !tbaa !210
  store i32 %50, ptr %10, align 4, !tbaa !43
  store i32 %50, ptr %7, align 4, !tbaa !43
  %51 = load ptr, ptr %5, align 8, !tbaa !12
  %52 = call i32 @fspathhash(ptr noundef %51)
  store i32 %52, ptr %8, align 4, !tbaa !43
  %53 = load i32, ptr %8, align 4, !tbaa !43
  %54 = load i32, ptr %12, align 4, !tbaa !43
  %55 = and i32 %53, %54
  store i32 %55, ptr %9, align 4, !tbaa !43
  %56 = load ptr, ptr %4, align 8, !tbaa !207
  %57 = getelementptr inbounds nuw %struct.kh_odb_path_map, ptr %56, i32 0, i32 4
  %58 = load ptr, ptr %57, align 8, !tbaa !212
  %59 = load i32, ptr %9, align 4, !tbaa !43
  %60 = lshr i32 %59, 4
  %61 = zext i32 %60 to i64
  %62 = getelementptr inbounds nuw i32, ptr %58, i64 %61
  %63 = load i32, ptr %62, align 4, !tbaa !43
  %64 = load i32, ptr %9, align 4, !tbaa !43
  %65 = and i32 %64, 15
  %66 = shl i32 %65, 1
  %67 = lshr i32 %63, %66
  %68 = and i32 %67, 2
  %69 = icmp ne i32 %68, 0
  br i1 %69, label %70, label %72

70:                                               ; preds = %43
  %71 = load i32, ptr %9, align 4, !tbaa !43
  store i32 %71, ptr %7, align 4, !tbaa !43
  br label %183

72:                                               ; preds = %43
  %73 = load i32, ptr %9, align 4, !tbaa !43
  store i32 %73, ptr %11, align 4, !tbaa !43
  br label %74

74:                                               ; preds = %149, %72
  %75 = load ptr, ptr %4, align 8, !tbaa !207
  %76 = getelementptr inbounds nuw %struct.kh_odb_path_map, ptr %75, i32 0, i32 4
  %77 = load ptr, ptr %76, align 8, !tbaa !212
  %78 = load i32, ptr %9, align 4, !tbaa !43
  %79 = lshr i32 %78, 4
  %80 = zext i32 %79 to i64
  %81 = getelementptr inbounds nuw i32, ptr %77, i64 %80
  %82 = load i32, ptr %81, align 4, !tbaa !43
  %83 = load i32, ptr %9, align 4, !tbaa !43
  %84 = and i32 %83, 15
  %85 = shl i32 %84, 1
  %86 = lshr i32 %82, %85
  %87 = and i32 %86, 2
  %88 = icmp ne i32 %87, 0
  br i1 %88, label %118, label %89

89:                                               ; preds = %74
  %90 = load ptr, ptr %4, align 8, !tbaa !207
  %91 = getelementptr inbounds nuw %struct.kh_odb_path_map, ptr %90, i32 0, i32 4
  %92 = load ptr, ptr %91, align 8, !tbaa !212
  %93 = load i32, ptr %9, align 4, !tbaa !43
  %94 = lshr i32 %93, 4
  %95 = zext i32 %94 to i64
  %96 = getelementptr inbounds nuw i32, ptr %92, i64 %95
  %97 = load i32, ptr %96, align 4, !tbaa !43
  %98 = load i32, ptr %9, align 4, !tbaa !43
  %99 = and i32 %98, 15
  %100 = shl i32 %99, 1
  %101 = lshr i32 %97, %100
  %102 = and i32 %101, 1
  %103 = icmp ne i32 %102, 0
  br i1 %103, label %116, label %104

104:                                              ; preds = %89
  %105 = load ptr, ptr %4, align 8, !tbaa !207
  %106 = getelementptr inbounds nuw %struct.kh_odb_path_map, ptr %105, i32 0, i32 5
  %107 = load ptr, ptr %106, align 8, !tbaa !213
  %108 = load i32, ptr %9, align 4, !tbaa !43
  %109 = zext i32 %108 to i64
  %110 = getelementptr inbounds nuw ptr, ptr %107, i64 %109
  %111 = load ptr, ptr %110, align 8, !tbaa !12
  %112 = load ptr, ptr %5, align 8, !tbaa !12
  %113 = call i32 @fspatheq(ptr noundef %111, ptr noundef %112)
  %114 = icmp ne i32 %113, 0
  %115 = xor i1 %114, true
  br label %116

116:                                              ; preds = %104, %89
  %117 = phi i1 [ true, %89 ], [ %115, %104 ]
  br label %118

118:                                              ; preds = %116, %74
  %119 = phi i1 [ false, %74 ], [ %117, %116 ]
  br i1 %119, label %120, label %150

120:                                              ; preds = %118
  %121 = load ptr, ptr %4, align 8, !tbaa !207
  %122 = getelementptr inbounds nuw %struct.kh_odb_path_map, ptr %121, i32 0, i32 4
  %123 = load ptr, ptr %122, align 8, !tbaa !212
  %124 = load i32, ptr %9, align 4, !tbaa !43
  %125 = lshr i32 %124, 4
  %126 = zext i32 %125 to i64
  %127 = getelementptr inbounds nuw i32, ptr %123, i64 %126
  %128 = load i32, ptr %127, align 4, !tbaa !43
  %129 = load i32, ptr %9, align 4, !tbaa !43
  %130 = and i32 %129, 15
  %131 = shl i32 %130, 1
  %132 = lshr i32 %128, %131
  %133 = and i32 %132, 1
  %134 = icmp ne i32 %133, 0
  br i1 %134, label %135, label %137

135:                                              ; preds = %120
  %136 = load i32, ptr %9, align 4, !tbaa !43
  store i32 %136, ptr %10, align 4, !tbaa !43
  br label %137

137:                                              ; preds = %135, %120
  %138 = load i32, ptr %9, align 4, !tbaa !43
  %139 = load i32, ptr %13, align 4, !tbaa !43
  %140 = add i32 %139, 1
  store i32 %140, ptr %13, align 4, !tbaa !43
  %141 = add i32 %138, %140
  %142 = load i32, ptr %12, align 4, !tbaa !43
  %143 = and i32 %141, %142
  store i32 %143, ptr %9, align 4, !tbaa !43
  %144 = load i32, ptr %9, align 4, !tbaa !43
  %145 = load i32, ptr %11, align 4, !tbaa !43
  %146 = icmp eq i32 %144, %145
  br i1 %146, label %147, label %149

147:                                              ; preds = %137
  %148 = load i32, ptr %10, align 4, !tbaa !43
  store i32 %148, ptr %7, align 4, !tbaa !43
  br label %150

149:                                              ; preds = %137
  br label %74, !llvm.loop !214

150:                                              ; preds = %147, %118
  %151 = load i32, ptr %7, align 4, !tbaa !43
  %152 = load ptr, ptr %4, align 8, !tbaa !207
  %153 = getelementptr inbounds nuw %struct.kh_odb_path_map, ptr %152, i32 0, i32 0
  %154 = load i32, ptr %153, align 8, !tbaa !210
  %155 = icmp eq i32 %151, %154
  br i1 %155, label %156, label %182

156:                                              ; preds = %150
  %157 = load ptr, ptr %4, align 8, !tbaa !207
  %158 = getelementptr inbounds nuw %struct.kh_odb_path_map, ptr %157, i32 0, i32 4
  %159 = load ptr, ptr %158, align 8, !tbaa !212
  %160 = load i32, ptr %9, align 4, !tbaa !43
  %161 = lshr i32 %160, 4
  %162 = zext i32 %161 to i64
  %163 = getelementptr inbounds nuw i32, ptr %159, i64 %162
  %164 = load i32, ptr %163, align 4, !tbaa !43
  %165 = load i32, ptr %9, align 4, !tbaa !43
  %166 = and i32 %165, 15
  %167 = shl i32 %166, 1
  %168 = lshr i32 %164, %167
  %169 = and i32 %168, 2
  %170 = icmp ne i32 %169, 0
  br i1 %170, label %171, label %179

171:                                              ; preds = %156
  %172 = load i32, ptr %10, align 4, !tbaa !43
  %173 = load ptr, ptr %4, align 8, !tbaa !207
  %174 = getelementptr inbounds nuw %struct.kh_odb_path_map, ptr %173, i32 0, i32 0
  %175 = load i32, ptr %174, align 8, !tbaa !210
  %176 = icmp ne i32 %172, %175
  br i1 %176, label %177, label %179

177:                                              ; preds = %171
  %178 = load i32, ptr %10, align 4, !tbaa !43
  store i32 %178, ptr %7, align 4, !tbaa !43
  br label %181

179:                                              ; preds = %171, %156
  %180 = load i32, ptr %9, align 4, !tbaa !43
  store i32 %180, ptr %7, align 4, !tbaa !43
  br label %181

181:                                              ; preds = %179, %177
  br label %182

182:                                              ; preds = %181, %150
  br label %183

183:                                              ; preds = %182, %70
  call void @llvm.lifetime.end.p0(i64 4, ptr %13) #14
  call void @llvm.lifetime.end.p0(i64 4, ptr %12) #14
  call void @llvm.lifetime.end.p0(i64 4, ptr %11) #14
  call void @llvm.lifetime.end.p0(i64 4, ptr %10) #14
  call void @llvm.lifetime.end.p0(i64 4, ptr %9) #14
  call void @llvm.lifetime.end.p0(i64 4, ptr %8) #14
  %184 = load ptr, ptr %4, align 8, !tbaa !207
  %185 = getelementptr inbounds nuw %struct.kh_odb_path_map, ptr %184, i32 0, i32 4
  %186 = load ptr, ptr %185, align 8, !tbaa !212
  %187 = load i32, ptr %7, align 4, !tbaa !43
  %188 = lshr i32 %187, 4
  %189 = zext i32 %188 to i64
  %190 = getelementptr inbounds nuw i32, ptr %186, i64 %189
  %191 = load i32, ptr %190, align 4, !tbaa !43
  %192 = load i32, ptr %7, align 4, !tbaa !43
  %193 = and i32 %192, 15
  %194 = shl i32 %193, 1
  %195 = lshr i32 %191, %194
  %196 = and i32 %195, 2
  %197 = icmp ne i32 %196, 0
  br i1 %197, label %198, label %232

198:                                              ; preds = %183
  %199 = load ptr, ptr %5, align 8, !tbaa !12
  %200 = load ptr, ptr %4, align 8, !tbaa !207
  %201 = getelementptr inbounds nuw %struct.kh_odb_path_map, ptr %200, i32 0, i32 5
  %202 = load ptr, ptr %201, align 8, !tbaa !213
  %203 = load i32, ptr %7, align 4, !tbaa !43
  %204 = zext i32 %203 to i64
  %205 = getelementptr inbounds nuw ptr, ptr %202, i64 %204
  store ptr %199, ptr %205, align 8, !tbaa !12
  %206 = load i32, ptr %7, align 4, !tbaa !43
  %207 = and i32 %206, 15
  %208 = shl i32 %207, 1
  %209 = zext i32 %208 to i64
  %210 = shl i64 3, %209
  %211 = xor i64 %210, -1
  %212 = load ptr, ptr %4, align 8, !tbaa !207
  %213 = getelementptr inbounds nuw %struct.kh_odb_path_map, ptr %212, i32 0, i32 4
  %214 = load ptr, ptr %213, align 8, !tbaa !212
  %215 = load i32, ptr %7, align 4, !tbaa !43
  %216 = lshr i32 %215, 4
  %217 = zext i32 %216 to i64
  %218 = getelementptr inbounds nuw i32, ptr %214, i64 %217
  %219 = load i32, ptr %218, align 4, !tbaa !43
  %220 = zext i32 %219 to i64
  %221 = and i64 %220, %211
  %222 = trunc i64 %221 to i32
  store i32 %222, ptr %218, align 4, !tbaa !43
  %223 = load ptr, ptr %4, align 8, !tbaa !207
  %224 = getelementptr inbounds nuw %struct.kh_odb_path_map, ptr %223, i32 0, i32 1
  %225 = load i32, ptr %224, align 4, !tbaa !211
  %226 = add i32 %225, 1
  store i32 %226, ptr %224, align 4, !tbaa !211
  %227 = load ptr, ptr %4, align 8, !tbaa !207
  %228 = getelementptr inbounds nuw %struct.kh_odb_path_map, ptr %227, i32 0, i32 2
  %229 = load i32, ptr %228, align 8, !tbaa !208
  %230 = add i32 %229, 1
  store i32 %230, ptr %228, align 8, !tbaa !208
  %231 = load ptr, ptr %6, align 8, !tbaa !171
  store i32 1, ptr %231, align 4, !tbaa !43
  br label %280

232:                                              ; preds = %183
  %233 = load ptr, ptr %4, align 8, !tbaa !207
  %234 = getelementptr inbounds nuw %struct.kh_odb_path_map, ptr %233, i32 0, i32 4
  %235 = load ptr, ptr %234, align 8, !tbaa !212
  %236 = load i32, ptr %7, align 4, !tbaa !43
  %237 = lshr i32 %236, 4
  %238 = zext i32 %237 to i64
  %239 = getelementptr inbounds nuw i32, ptr %235, i64 %238
  %240 = load i32, ptr %239, align 4, !tbaa !43
  %241 = load i32, ptr %7, align 4, !tbaa !43
  %242 = and i32 %241, 15
  %243 = shl i32 %242, 1
  %244 = lshr i32 %240, %243
  %245 = and i32 %244, 1
  %246 = icmp ne i32 %245, 0
  br i1 %246, label %247, label %277

247:                                              ; preds = %232
  %248 = load ptr, ptr %5, align 8, !tbaa !12
  %249 = load ptr, ptr %4, align 8, !tbaa !207
  %250 = getelementptr inbounds nuw %struct.kh_odb_path_map, ptr %249, i32 0, i32 5
  %251 = load ptr, ptr %250, align 8, !tbaa !213
  %252 = load i32, ptr %7, align 4, !tbaa !43
  %253 = zext i32 %252 to i64
  %254 = getelementptr inbounds nuw ptr, ptr %251, i64 %253
  store ptr %248, ptr %254, align 8, !tbaa !12
  %255 = load i32, ptr %7, align 4, !tbaa !43
  %256 = and i32 %255, 15
  %257 = shl i32 %256, 1
  %258 = zext i32 %257 to i64
  %259 = shl i64 3, %258
  %260 = xor i64 %259, -1
  %261 = load ptr, ptr %4, align 8, !tbaa !207
  %262 = getelementptr inbounds nuw %struct.kh_odb_path_map, ptr %261, i32 0, i32 4
  %263 = load ptr, ptr %262, align 8, !tbaa !212
  %264 = load i32, ptr %7, align 4, !tbaa !43
  %265 = lshr i32 %264, 4
  %266 = zext i32 %265 to i64
  %267 = getelementptr inbounds nuw i32, ptr %263, i64 %266
  %268 = load i32, ptr %267, align 4, !tbaa !43
  %269 = zext i32 %268 to i64
  %270 = and i64 %269, %260
  %271 = trunc i64 %270 to i32
  store i32 %271, ptr %267, align 4, !tbaa !43
  %272 = load ptr, ptr %4, align 8, !tbaa !207
  %273 = getelementptr inbounds nuw %struct.kh_odb_path_map, ptr %272, i32 0, i32 1
  %274 = load i32, ptr %273, align 4, !tbaa !211
  %275 = add i32 %274, 1
  store i32 %275, ptr %273, align 4, !tbaa !211
  %276 = load ptr, ptr %6, align 8, !tbaa !171
  store i32 2, ptr %276, align 4, !tbaa !43
  br label %279

277:                                              ; preds = %232
  %278 = load ptr, ptr %6, align 8, !tbaa !171
  store i32 0, ptr %278, align 4, !tbaa !43
  br label %279

279:                                              ; preds = %277, %247
  br label %280

280:                                              ; preds = %279, %198
  %281 = load i32, ptr %7, align 4, !tbaa !43
  call void @llvm.lifetime.end.p0(i64 4, ptr %7) #14
  ret i32 %281
}