; Function Attrs: inlinehint nounwind uwtable
define internal fastcc i32 @kh_put_odb_path_map(ptr noundef captures(none) %0, ptr noundef %1, ptr noundef nonnull writeonly captures(none) %2) unnamed_addr #14 {
  %4 = getelementptr inbounds nuw i8, ptr %0, i64 8
  %5 = load i32, ptr %4, align 8, !tbaa !172
  %6 = getelementptr inbounds nuw i8, ptr %0, i64 12
  %7 = load i32, ptr %6, align 4, !tbaa !173
  %.not = icmp ult i32 %5, %7
  br i1 %.not, label %14, label %.sink.split

.sink.split:                                      ; preds = %3
  %8 = load i32, ptr %0, align 8, !tbaa !174
  %9 = getelementptr inbounds nuw i8, ptr %0, i64 4
  %10 = load i32, ptr %9, align 4, !tbaa !175
  %11 = shl i32 %10, 1
  %12 = icmp ugt i32 %8, %11
  %. = select i1 %12, i32 -1, i32 1
  %13 = add i32 %8, %.
  tail call fastcc void @kh_resize_odb_path_map(ptr noundef nonnull %0, i32 noundef %13)
  br label %14

14:                                               ; preds = %.sink.split, %3
  %15 = load i32, ptr %0, align 8, !tbaa !174
  %16 = add i32 %15, -1
  %17 = tail call i32 @fspathhash(ptr noundef %1) #27
  %18 = and i32 %17, %16
  %19 = getelementptr inbounds nuw i8, ptr %0, i64 16
  %20 = load ptr, ptr %19, align 8, !tbaa !176
  %21 = lshr i32 %18, 4
  %22 = zext nneg i32 %21 to i64
  %23 = getelementptr inbounds nuw i32, ptr %20, i64 %22
  %24 = load i32, ptr %23, align 4, !tbaa !44
  %25 = shl i32 %18, 1
  %26 = and i32 %25, 30
  %27 = shl nuw i32 2, %26
  %28 = and i32 %27, %24
  %.not82 = icmp eq i32 %28, 0
  br i1 %.not82, label %.preheader, label %67

.preheader:                                       ; preds = %14
  %29 = getelementptr inbounds nuw i8, ptr %0, i64 24
  br label %30

30:                                               ; preds = %.preheader, %.critedge2
  %31 = phi ptr [ %49, %.critedge2 ], [ %20, %.preheader ]
  %.075 = phi i32 [ %spec.select, %.critedge2 ], [ %15, %.preheader ]
  %.073 = phi i32 [ %54, %.critedge2 ], [ %18, %.preheader ]
  %.0 = phi i32 [ %52, %.critedge2 ], [ 0, %.preheader ]
  %32 = lshr i32 %.073, 4
  %33 = zext nneg i32 %32 to i64
  %34 = getelementptr inbounds nuw i32, ptr %31, i64 %33
  %35 = load i32, ptr %34, align 4, !tbaa !44
  %36 = shl i32 %.073, 1
  %37 = and i32 %36, 30
  %38 = lshr i32 %35, %37
  %39 = and i32 %38, 2
  %.not83 = icmp eq i32 %39, 0
  br i1 %.not83, label %40, label %.critedge

40:                                               ; preds = %30
  %41 = and i32 %38, 1
  %.not84 = icmp eq i32 %41, 0
  br i1 %.not84, label %42, label %.critedge2

42:                                               ; preds = %40
  %43 = load ptr, ptr %29, align 8, !tbaa !177
  %44 = zext i32 %.073 to i64
  %45 = getelementptr inbounds nuw ptr, ptr %43, i64 %44
  %46 = load ptr, ptr %45, align 8, !tbaa !79
  %47 = tail call i32 @fspatheq(ptr noundef %46, ptr noundef %1) #27
  %.not85 = icmp eq i32 %47, 0
  %.pre92.pre = load ptr, ptr %19, align 8, !tbaa !176
  br i1 %.not85, label %..critedge2_crit_edge, label %.critedge

..critedge2_crit_edge:                            ; preds = %42
  %.phi.trans.insert = getelementptr inbounds nuw i32, ptr %.pre92.pre, i64 %33
  %.pre93 = load i32, ptr %.phi.trans.insert, align 4, !tbaa !44
  br label %.critedge2

.critedge2:                                       ; preds = %..critedge2_crit_edge, %40
  %48 = phi i32 [ %.pre93, %..critedge2_crit_edge ], [ %35, %40 ]
  %49 = phi ptr [ %.pre92.pre, %..critedge2_crit_edge ], [ %31, %40 ]
  %50 = shl nuw nsw i32 1, %37
  %51 = and i32 %48, %50
  %.not86 = icmp eq i32 %51, 0
  %spec.select = select i1 %.not86, i32 %.075, i32 %.073
  %52 = add i32 %.0, 1
  %53 = add i32 %52, %.073
  %54 = and i32 %53, %16
  %55 = icmp eq i32 %54, %18
  br i1 %55, label %.critedge, label %30, !llvm.loop !178

.critedge:                                        ; preds = %.critedge2, %30, %42
  %.pre92 = phi ptr [ %31, %30 ], [ %.pre92.pre, %42 ], [ %49, %.critedge2 ]
  %.176 = phi i32 [ %.075, %30 ], [ %.075, %42 ], [ %spec.select, %.critedge2 ]
  %.174 = phi i32 [ %.073, %30 ], [ %.073, %42 ], [ %18, %.critedge2 ]
  %.1 = phi i32 [ %15, %30 ], [ %15, %42 ], [ %spec.select, %.critedge2 ]
  %56 = load i32, ptr %0, align 8, !tbaa !174
  %57 = icmp eq i32 %.1, %56
  br i1 %57, label %58, label %67

58:                                               ; preds = %.critedge
  %59 = lshr i32 %.174, 4
  %60 = zext nneg i32 %59 to i64
  %61 = getelementptr inbounds nuw i32, ptr %.pre92, i64 %60
  %62 = load i32, ptr %61, align 4, !tbaa !44
  %63 = shl i32 %.174, 1
  %64 = and i32 %63, 30
  %65 = shl nuw i32 2, %64
  %66 = and i32 %62, %65
  %.not87 = icmp eq i32 %66, 0
  %.not88 = icmp eq i32 %.176, %.1
  %or.cond = select i1 %.not87, i1 true, i1 %.not88
  %spec.select91 = select i1 %or.cond, i32 %.174, i32 %.176
  br label %67

67:                                               ; preds = %58, %14, %.critedge
  %68 = phi ptr [ %.pre92, %.critedge ], [ %20, %14 ], [ %.pre92, %58 ]
  %.072 = phi i32 [ %.1, %.critedge ], [ %18, %14 ], [ %spec.select91, %58 ]
  %69 = lshr i32 %.072, 4
  %70 = zext nneg i32 %69 to i64
  %71 = getelementptr inbounds nuw i32, ptr %68, i64 %70
  %72 = load i32, ptr %71, align 4, !tbaa !44
  %73 = shl i32 %.072, 1
  %74 = and i32 %73, 30
  %75 = lshr i32 %72, %74
  %76 = and i32 %75, 2
  %.not89 = icmp eq i32 %76, 0
  br i1 %.not89, label %90, label %77

77:                                               ; preds = %67
  %78 = getelementptr inbounds nuw i8, ptr %0, i64 24
  %79 = load ptr, ptr %78, align 8, !tbaa !177
  %80 = zext i32 %.072 to i64
  %81 = getelementptr inbounds nuw ptr, ptr %79, i64 %80
  store ptr %1, ptr %81, align 8, !tbaa !79
  %82 = shl nuw i32 3, %74
  %83 = xor i32 %82, -1
  %84 = and i32 %72, %83
  store i32 %84, ptr %71, align 4, !tbaa !44
  %85 = getelementptr inbounds nuw i8, ptr %0, i64 4
  %86 = load i32, ptr %85, align 4, !tbaa !175
  %87 = add i32 %86, 1
  store i32 %87, ptr %85, align 4, !tbaa !175
  %88 = load i32, ptr %4, align 8, !tbaa !172
  %89 = add i32 %88, 1
  store i32 %89, ptr %4, align 8, !tbaa !172
  br label %103

90:                                               ; preds = %67
  %91 = and i32 %75, 1
  %.not90 = icmp eq i32 %91, 0
  br i1 %.not90, label %103, label %92

92:                                               ; preds = %90
  %93 = getelementptr inbounds nuw i8, ptr %0, i64 24
  %94 = load ptr, ptr %93, align 8, !tbaa !177
  %95 = zext i32 %.072 to i64
  %96 = getelementptr inbounds nuw ptr, ptr %94, i64 %95
  store ptr %1, ptr %96, align 8, !tbaa !79
  %97 = shl nuw i32 3, %74
  %98 = xor i32 %97, -1
  %99 = and i32 %72, %98
  store i32 %99, ptr %71, align 4, !tbaa !44
  %100 = getelementptr inbounds nuw i8, ptr %0, i64 4
  %101 = load i32, ptr %100, align 4, !tbaa !175
  %102 = add i32 %101, 1
  store i32 %102, ptr %100, align 4, !tbaa !175
  br label %103

103:                                              ; preds = %90, %92, %77
  %.sink = phi i32 [ 2, %92 ], [ 1, %77 ], [ 0, %90 ]
  store i32 %.sink, ptr %2, align 4, !tbaa !44
  ret i32 %.072
}